target datalayout = "e-m:e-p270:32:32-p271:32:32-p272:64:64-i64:64-i128:128-f80:128-n8:16:32:64-S128"
target triple = "x86_64-unknown-linux-gnu"

%"class.icu_75::ScriptSet" = type { [7 x i32] }

@_ZN6icu_759ScriptSetD1Ev = unnamed_addr alias void (ptr), ptr @_ZN6icu_759ScriptSetD2Ev
@_ZN6icu_759ScriptSetC1ERKS0_ = unnamed_addr alias void (ptr, ptr), ptr @_ZN6icu_759ScriptSetC2ERKS0_

; Function Attrs: mustprogress nounwind uwtable
define noundef zeroext i1 @_ZNK6icu_759ScriptSeteqERKS0_(ptr noundef nonnull align 4 dereferenceable(28) %this, ptr noundef nonnull align 4 dereferenceable(28) %other) #0 align 2 {
entry:
  %retval = alloca i1, align 1
  %this.addr = alloca ptr, align 8
  %other.addr = alloca ptr, align 8
  %i = alloca i32, align 4
  store ptr %this, ptr %this.addr, align 8
  store ptr %other, ptr %other.addr, align 8
  %this1 = load ptr, ptr %this.addr, align 8
  store i32 0, ptr %i, align 4
  br label %for.cond

for.cond:                                         ; preds = %for.inc, %entry
  %0 = load i32, ptr %i, align 4
  %cmp = icmp ult i32 %0, 7
  br i1 %cmp, label %for.body, label %for.end

for.body:                                         ; preds = %for.cond
  %bits = getelementptr inbounds %"class.icu_75::ScriptSet", ptr %this1, i32 0, i32 0
  %1 = load i32, ptr %i, align 4
  %idxprom = zext i32 %1 to i64
  %arrayidx = getelementptr inbounds [7 x i32], ptr %bits, i64 0, i64 %idxprom
  %2 = load i32, ptr %arrayidx, align 4
  %3 = load ptr, ptr %other.addr, align 8
  %bits2 = getelementptr inbounds %"class.icu_75::ScriptSet", ptr %3, i32 0, i32 0
  %4 = load i32, ptr %i, align 4
  %idxprom3 = zext i32 %4 to i64
  %arrayidx4 = getelementptr inbounds [7 x i32], ptr %bits2, i64 0, i64 %idxprom3
  %5 = load i32, ptr %arrayidx4, align 4
  %cmp5 = icmp ne i32 %2, %5
  br i1 %cmp5, label %if.then, label %if.end

if.then:                                          ; preds = %for.body
  store i1 false, ptr %retval, align 1
  br label %return

if.end:                                           ; preds = %for.body
  br label %for.inc

for.inc:                                          ; preds = %if.end
  %6 = load i32, ptr %i, align 4
  %inc = add i32 %6, 1
  store i32 %inc, ptr %i, align 4
  br label %for.cond, !llvm.loop !4

for.end:                                          ; preds = %for.cond
  store i1 true, ptr %retval, align 1
  br label %return

return:                                           ; preds = %for.end, %if.then
  %7 = load i1, ptr %retval, align 1
  ret i1 %7
}

; Function Attrs: mustprogress nounwind uwtable
define noundef nonnull align 4 dereferenceable(28) ptr @_ZN6icu_759ScriptSet9intersectERKS0_(ptr noundef nonnull align 4 dereferenceable(28) %this, ptr noundef nonnull align 4 dereferenceable(28) %other) #0 align 2 {
entry:
  %this.addr = alloca ptr, align 8
  %other.addr = alloca ptr, align 8
  %i = alloca i32, align 4
  store ptr %this, ptr %this.addr, align 8
  store ptr %other, ptr %other.addr, align 8
  %this1 = load ptr, ptr %this.addr, align 8
  store i32 0, ptr %i, align 4
  br label %for.cond

for.cond:                                         ; preds = %for.inc, %entry
  %0 = load i32, ptr %i, align 4
  %cmp = icmp ult i32 %0, 7
  br i1 %cmp, label %for.body, label %for.end

for.body:                                         ; preds = %for.cond
  %1 = load ptr, ptr %other.addr, align 8
  %bits = getelementptr inbounds %"class.icu_75::ScriptSet", ptr %1, i32 0, i32 0
  %2 = load i32, ptr %i, align 4
  %idxprom = zext i32 %2 to i64
  %arrayidx = getelementptr inbounds [7 x i32], ptr %bits, i64 0, i64 %idxprom
  %3 = load i32, ptr %arrayidx, align 4
  %bits2 = getelementptr inbounds %"class.icu_75::ScriptSet", ptr %this1, i32 0, i32 0
  %4 = load i32, ptr %i, align 4
  %idxprom3 = zext i32 %4 to i64
  %arrayidx4 = getelementptr inbounds [7 x i32], ptr %bits2, i64 0, i64 %idxprom3
  %5 = load i32, ptr %arrayidx4, align 4
  %and = and i32 %5, %3
  store i32 %and, ptr %arrayidx4, align 4
  br label %for.inc

for.inc:                                          ; preds = %for.body
  %6 = load i32, ptr %i, align 4
  %inc = add i32 %6, 1
  store i32 %inc, ptr %i, align 4
  br label %for.cond, !llvm.loop !7

for.end:                                          ; preds = %for.cond
  ret ptr %this1
}

; Function Attrs: mustprogress uwtable
define noundef signext i8 @_ZNK6icu_759ScriptSet8containsERKS0_(ptr noundef nonnull align 4 dereferenceable(28) %this, ptr noundef nonnull align 4 dereferenceable(28) %other) #2 align 2 {
entry:
  %this.addr = alloca ptr, align 8
  %other.addr = alloca ptr, align 8
  %t = alloca %"class.icu_75::ScriptSet", align 4
  store ptr %this, ptr %this.addr, align 8
  store ptr %other, ptr %other.addr, align 8
  %this1 = load ptr, ptr %this.addr, align 8
  call void @_ZN6icu_759ScriptSetC1ERKS0_(ptr noundef nonnull align 4 dereferenceable(28) %t, ptr noundef nonnull align 4 dereferenceable(28) %this1)
  %0 = load ptr, ptr %other.addr, align 8
  %call = call noundef nonnull align 4 dereferenceable(28) ptr @_ZN6icu_759ScriptSet9intersectERKS0_(ptr noundef nonnull align 4 dereferenceable(28) %t, ptr noundef nonnull align 4 dereferenceable(28) %0)
  %1 = load ptr, ptr %other.addr, align 8
  %call2 = call noundef zeroext i1 @_ZNK6icu_759ScriptSeteqERKS0_(ptr noundef nonnull align 4 dereferenceable(28) %t, ptr noundef nonnull align 4 dereferenceable(28) %1)
  %conv = zext i1 %call2 to i8
  call void @_ZN6icu_759ScriptSetD1Ev(ptr noundef nonnull align 4 dereferenceable(28) %t) #8
  ret i8 %conv
}