; Function Attrs: mustprogress uwtable
define noundef signext i8 @_ZNK6icu_759ScriptSet8containsERKS0_(ptr noundef nonnull align 4 dereferenceable(28) %this, ptr nocapture noundef nonnull readonly align 4 dereferenceable(28) %other) local_unnamed_addr #7 align 2 {
entry:
  %t = alloca %"class.icu_75::ScriptSet", align 4
  call void @_ZN6icu_759ScriptSetC1ERKS0_(ptr noundef nonnull align 4 dereferenceable(28) %t, ptr noundef nonnull align 4 dereferenceable(28) %this)
  br label %for.body.i

for.body.i:                                       ; preds = %for.body.i, %entry
  %indvars.iv.i = phi i64 [ 0, %entry ], [ %indvars.iv.next.i, %for.body.i ]
  %arrayidx.i = getelementptr inbounds [7 x i32], ptr %other, i64 0, i64 %indvars.iv.i
  %0 = load i32, ptr %arrayidx.i, align 4
  %arrayidx4.i = getelementptr inbounds [7 x i32], ptr %t, i64 0, i64 %indvars.iv.i
  %1 = load i32, ptr %arrayidx4.i, align 4
  %and.i = and i32 %1, %0
  store i32 %and.i, ptr %arrayidx4.i, align 4
  %indvars.iv.next.i = add nuw nsw i64 %indvars.iv.i, 1
  %exitcond.not.i = icmp eq i64 %indvars.iv.next.i, 7
  br i1 %exitcond.not.i, label %for.body.i2.preheader, label %for.body.i, !llvm.loop !7

for.body.i2.preheader:                            ; preds = %for.body.i
  %2 = load i32, ptr %t, align 4
  %3 = load i32, ptr %other, align 4
  %cmp5.not.i7 = icmp eq i32 %2, %3
  br i1 %cmp5.not.i7, label %for.cond.i, label %_ZNK6icu_759ScriptSeteqERKS0_.exit

for.cond.i:                                       ; preds = %for.body.i2.preheader, %for.body.i2
  %indvars.iv.i38 = phi i64 [ %indvars.iv.next.i6, %for.body.i2 ], [ 0, %for.body.i2.preheader ]
  %indvars.iv.next.i6 = add nuw nsw i64 %indvars.iv.i38, 1
  %exitcond.i = icmp eq i64 %indvars.iv.next.i6, 7
  br i1 %exitcond.i, label %_ZNK6icu_759ScriptSeteqERKS0_.exit.loopexit, label %for.body.i2, !llvm.loop !4

for.body.i2:                                      ; preds = %for.cond.i
  %arrayidx.i4 = getelementptr inbounds [7 x i32], ptr %t, i64 0, i64 %indvars.iv.next.i6
  %4 = load i32, ptr %arrayidx.i4, align 4
  %arrayidx4.i5 = getelementptr inbounds [7 x i32], ptr %other, i64 0, i64 %indvars.iv.next.i6
  %5 = load i32, ptr %arrayidx4.i5, align 4
  %cmp5.not.i = icmp eq i32 %4, %5
  br i1 %cmp5.not.i, label %for.cond.i, label %_ZNK6icu_759ScriptSeteqERKS0_.exit.loopexit, !llvm.loop !4

_ZNK6icu_759ScriptSeteqERKS0_.exit.loopexit:      ; preds = %for.cond.i, %for.body.i2
  %cmp.i.le = icmp ugt i64 %indvars.iv.i38, 5
  %6 = zext i1 %cmp.i.le to i8
  br label %_ZNK6icu_759ScriptSeteqERKS0_.exit

_ZNK6icu_759ScriptSeteqERKS0_.exit:               ; preds = %_ZNK6icu_759ScriptSeteqERKS0_.exit.loopexit, %for.body.i2.preheader
  %cmp.lcssa.i = phi i8 [ 0, %for.body.i2.preheader ], [ %6, %_ZNK6icu_759ScriptSeteqERKS0_.exit.loopexit ]
  call void @_ZN6icu_759ScriptSetD1Ev(ptr noundef nonnull align 4 dereferenceable(28) %t) #14
  ret i8 %cmp.lcssa.i
}